target datalayout = "e-m:e-p270:32:32-p271:32:32-p272:64:64-i64:64-i128:128-f80:128-n8:16:32:64-S128"
target triple = "x86_64-pc-linux-gnu"

%struct.list_head = type { ptr, ptr }
%struct.walker_data = type { ptr, i32, ptr }
%struct.alt_base = type { ptr, i32, ptr, ptr }
%struct.walker = type { ptr, ptr, ptr, ptr, ptr, i32, i32, i32, i32 }
%struct.packed_git = type { %struct.hashmap_entry, ptr, %struct.list_head, ptr, i64, ptr, i64, i32, i64, %struct.oidset, i32, i64, i32, i32, i8, [32 x i8], ptr, ptr, ptr, i64, ptr, i64, ptr, [0 x i8] }
%struct.hashmap_entry = type { ptr, i32 }
%struct.oidset = type { %struct.kh_oid_set }
%struct.kh_oid_set = type { i32, i32, i32, i32, ptr, ptr, ptr }

; Function Attrs: nounwind uwtable
define internal void @cleanup(ptr noundef %0) #0 {
  %2 = alloca ptr, align 8
  %3 = alloca ptr, align 8
  %4 = alloca ptr, align 8
  %5 = alloca ptr, align 8
  %6 = alloca ptr, align 8
  %7 = alloca ptr, align 8
  store ptr %0, ptr %2, align 8, !tbaa !11
  call void @llvm.lifetime.start.p0(i64 8, ptr %3) #8
  %8 = load ptr, ptr %2, align 8, !tbaa !11
  %9 = getelementptr inbounds nuw %struct.walker, ptr %8, i32 0, i32 0
  %10 = load ptr, ptr %9, align 8, !tbaa !33
  store ptr %10, ptr %3, align 8, !tbaa !9
  call void @llvm.lifetime.start.p0(i64 8, ptr %4) #8
  call void @llvm.lifetime.start.p0(i64 8, ptr %5) #8
  %11 = load ptr, ptr %3, align 8, !tbaa !9
  %12 = icmp ne ptr %11, null
  br i1 %12, label %13, label %47

13:                                               ; preds = %1
  %14 = load ptr, ptr %3, align 8, !tbaa !9
  %15 = getelementptr inbounds nuw %struct.walker_data, ptr %14, i32 0, i32 2
  %16 = load ptr, ptr %15, align 8, !tbaa !13
  store ptr %16, ptr %4, align 8, !tbaa !36
  br label %17

17:                                               ; preds = %37, %13
  %18 = load ptr, ptr %4, align 8, !tbaa !36
  %19 = icmp ne ptr %18, null
  br i1 %19, label %20, label %43

20:                                               ; preds = %17
  call void @llvm.lifetime.start.p0(i64 8, ptr %6) #8
  %21 = load ptr, ptr %4, align 8, !tbaa !36
  %22 = getelementptr inbounds nuw %struct.alt_base, ptr %21, i32 0, i32 3
  %23 = load ptr, ptr %22, align 8, !tbaa !25
  store ptr %23, ptr %5, align 8, !tbaa !36
  %24 = load ptr, ptr %4, align 8, !tbaa !36
  %25 = getelementptr inbounds nuw %struct.alt_base, ptr %24, i32 0, i32 2
  %26 = load ptr, ptr %25, align 8, !tbaa !24
  store ptr %26, ptr %6, align 8, !tbaa !53
  br label %27

27:                                               ; preds = %30, %20
  %28 = load ptr, ptr %6, align 8, !tbaa !53
  %29 = icmp ne ptr %28, null
  br i1 %29, label %30, label %37

30:                                               ; preds = %27
  call void @llvm.lifetime.start.p0(i64 8, ptr %7) #8
  %31 = load ptr, ptr %6, align 8, !tbaa !53
  %32 = getelementptr inbounds nuw %struct.packed_git, ptr %31, i32 0, i32 1
  %33 = load ptr, ptr %32, align 8, !tbaa !53
  store ptr %33, ptr %7, align 8, !tbaa !53
  %34 = load ptr, ptr %6, align 8, !tbaa !53
  call void @close_pack(ptr noundef %34)
  %35 = load ptr, ptr %6, align 8, !tbaa !53
  call void @free(ptr noundef %35) #8
  %36 = load ptr, ptr %7, align 8, !tbaa !53
  store ptr %36, ptr %6, align 8, !tbaa !53
  call void @llvm.lifetime.end.p0(i64 8, ptr %7) #8
  br label %27, !llvm.loop !54

37:                                               ; preds = %27
  %38 = load ptr, ptr %4, align 8, !tbaa !36
  %39 = getelementptr inbounds nuw %struct.alt_base, ptr %38, i32 0, i32 0
  %40 = load ptr, ptr %39, align 8, !tbaa !17
  call void @free(ptr noundef %40) #8
  %41 = load ptr, ptr %4, align 8, !tbaa !36
  call void @free(ptr noundef %41) #8
  %42 = load ptr, ptr %5, align 8, !tbaa !36
  store ptr %42, ptr %4, align 8, !tbaa !36
  call void @llvm.lifetime.end.p0(i64 8, ptr %6) #8
  br label %17, !llvm.loop !55

43:                                               ; preds = %17
  %44 = load ptr, ptr %3, align 8, !tbaa !9
  call void @free(ptr noundef %44) #8
  %45 = load ptr, ptr %2, align 8, !tbaa !11
  %46 = getelementptr inbounds nuw %struct.walker, ptr %45, i32 0, i32 0
  store ptr null, ptr %46, align 8, !tbaa !33
  br label %47

47:                                               ; preds = %43, %1
  call void @llvm.lifetime.end.p0(i64 8, ptr %5) #8
  call void @llvm.lifetime.end.p0(i64 8, ptr %4) #8
  call void @llvm.lifetime.end.p0(i64 8, ptr %3) #8
  ret void
}