; Function Attrs: nounwind uwtable
define internal void @cleanup(ptr noundef captures(none) %0) #0 {
  %2 = load ptr, ptr %0, align 8, !tbaa !26
  %.not = icmp eq ptr %2, null
  br i1 %.not, label %13, label %3

3:                                                ; preds = %1
  %4 = getelementptr inbounds nuw i8, ptr %2, i64 16
  %5 = load ptr, ptr %4, align 8, !tbaa !4
  %.not1822 = icmp eq ptr %5, null
  br i1 %.not1822, label %._crit_edge26, label %.lr.ph25

.lr.ph25:                                         ; preds = %3, %._crit_edge
  %.023 = phi ptr [ %7, %._crit_edge ], [ %5, %3 ]
  %6 = getelementptr inbounds nuw i8, ptr %.023, i64 24
  %7 = load ptr, ptr %6, align 8, !tbaa !72
  %8 = getelementptr inbounds nuw i8, ptr %.023, i64 16
  %9 = load ptr, ptr %8, align 8, !tbaa !61
  %.not1920 = icmp eq ptr %9, null
  br i1 %.not1920, label %._crit_edge, label %.lr.ph

.lr.ph:                                           ; preds = %.lr.ph25, %.lr.ph
  %.01621 = phi ptr [ %11, %.lr.ph ], [ %9, %.lr.ph25 ]
  %10 = getelementptr inbounds nuw i8, ptr %.01621, i64 16
  %11 = load ptr, ptr %10, align 8, !tbaa !78
  tail call void @close_pack(ptr noundef nonnull %.01621) #11
  tail call void @free(ptr noundef nonnull %.01621) #11
  %.not19 = icmp eq ptr %11, null
  br i1 %.not19, label %._crit_edge, label %.lr.ph, !llvm.loop !79

._crit_edge:                                      ; preds = %.lr.ph, %.lr.ph25
  %12 = load ptr, ptr %.023, align 8, !tbaa !12
  tail call void @free(ptr noundef %12) #11
  tail call void @free(ptr noundef %.023) #11
  %.not18 = icmp eq ptr %7, null
  br i1 %.not18, label %._crit_edge26, label %.lr.ph25, !llvm.loop !80

._crit_edge26:                                    ; preds = %._crit_edge, %3
  tail call void @free(ptr noundef %2) #11
  store ptr null, ptr %0, align 8, !tbaa !26
  br label %13

13:                                               ; preds = %._crit_edge26, %1
  ret void
}